; Function Attrs: mustprogress uwtable
define dso_local noundef nonnull align 8 dereferenceable(32) ptr @_ZN2cmpLERNSt7__cxx1112basic_stringIcSt11char_traitsIcESaIcEEERKNS_6StringE(ptr noundef nonnull align 8 dereferenceable(32) %0, ptr noundef nonnull readonly align 8 captures(none) dereferenceable(32) %1) local_unnamed_addr #2 personality ptr @__gxx_personality_v0 {
  %3 = getelementptr inbounds nuw i8, ptr %1, i64 16
  %.sroa.0.0.copyload.i = load i64, ptr %3, align 8, !tbaa !29
  %4 = getelementptr inbounds nuw i8, ptr %0, i64 8
  %5 = load i64, ptr %4, align 8, !tbaa !35
  %6 = sub i64 4611686018427387903, %5
  %7 = icmp ult i64 %6, %.sroa.0.0.copyload.i
  br i1 %7, label %8, label %_ZNSt7__cxx1112basic_stringIcSt11char_traitsIcESaIcEEpLISt17basic_string_viewIcS2_EEENSt9enable_ifIXsr6__and_ISt14is_convertibleIRKT_S7_ESt6__not_IS9_IPSB_PKS4_EESE_IS9_ISC_PKcEEEE5valueERS4_E4typeESC_.exit

8:                                                ; preds = %2
  tail call void @_ZSt20__throw_length_errorPKc(ptr noundef nonnull @.str.3) #21
  unreachable

_ZNSt7__cxx1112basic_stringIcSt11char_traitsIcESaIcEEpLISt17basic_string_viewIcS2_EEENSt9enable_ifIXsr6__and_ISt14is_convertibleIRKT_S7_ESt6__not_IS9_IPSB_PKS4_EESE_IS9_ISC_PKcEEEE5valueERS4_E4typeESC_.exit: ; preds = %2
  %.sroa.2.0..sroa_idx.i = getelementptr inbounds nuw i8, ptr %1, i64 24
  %.sroa.2.0.copyload.i = load ptr, ptr %.sroa.2.0..sroa_idx.i, align 8, !tbaa !30
  %9 = tail call noundef nonnull align 8 dereferenceable(32) ptr @_ZNSt7__cxx1112basic_stringIcSt11char_traitsIcESaIcEE9_M_appendEPKcm(ptr noundef nonnull align 8 dereferenceable(32) %0, ptr noundef %.sroa.2.0.copyload.i, i64 noundef %.sroa.0.0.copyload.i)
  ret ptr %9
}